target datalayout = "e-m:e-p270:32:32-p271:32:32-p272:64:64-i64:64-i128:128-f80:128-n8:16:32:64-S128"
target triple = "x86_64-pc-linux-gnu"

%struct.strbuf = type { i64, i64, ptr }
%struct.apply_state = type { ptr, %struct.lock_file, i32, i32, i32, i32, i32, i32, i32, i32, i32, i32, i32, i32, i32, i32, i32, i32, i32, ptr, ptr, i32, i32, ptr, ptr, i32, %struct.strbuf, i32, i32, i32, %struct.string_list, i32, i32, %struct.strset, %struct.strset, i32, i32, %struct.string_list, ptr, ptr, i32, i32, ptr, i32, i32, i32 }
%struct.lock_file = type { ptr }
%struct.strset = type { %struct.strmap }
%struct.strmap = type { %struct.hashmap, ptr, i8 }
%struct.hashmap = type { ptr, ptr, ptr, i32, i32, i32, i32, i8 }
%struct.string_list = type { ptr, i64, i64, i8, ptr }

@apply_default_whitespace = external global ptr, align 8
@apply_default_ignorewhitespace = external global ptr, align 8
@.str.23 = private unnamed_addr constant [1 x i8] zeroinitializer, align 1
@.str.109 = private unnamed_addr constant [17 x i8] c"apply.whitespace\00", align 1
@.str.110 = private unnamed_addr constant [23 x i8] c"apply.ignorewhitespace\00", align 1
@the_repository = external global ptr, align 8
@.str.118 = private unnamed_addr constant [3 x i8] c"no\00", align 1
@.str.119 = private unnamed_addr constant [6 x i8] c"false\00", align 1
@.str.120 = private unnamed_addr constant [6 x i8] c"never\00", align 1
@.str.121 = private unnamed_addr constant [5 x i8] c"none\00", align 1
@.str.122 = private unnamed_addr constant [7 x i8] c"change\00", align 1
@.str.123 = private unnamed_addr constant [43 x i8] c"unrecognized whitespace ignore option '%s'\00", align 1
@git_gettext_enabled = external global i32, align 4

; Function Attrs: inlinehint nounwind uwtable
define internal i32 @const_error() #3 {
  ret i32 -1
}

; Function Attrs: inlinehint nounwind uwtable
define internal ptr @_(ptr noundef %0) #3 {
  %2 = alloca ptr, align 8
  %3 = alloca ptr, align 8
  store ptr %0, ptr %3, align 8, !tbaa !11
  %4 = load ptr, ptr %3, align 8, !tbaa !11
  %5 = load i8, ptr %4, align 1, !tbaa !57
  %6 = icmp ne i8 %5, 0
  br i1 %6, label %8, label %7

7:                                                ; preds = %1
  store ptr @.str.23, ptr %2, align 8
  br label %16

8:                                                ; preds = %1
  %9 = load i32, ptr @git_gettext_enabled, align 4, !tbaa !39
  %10 = icmp ne i32 %9, 0
  br i1 %10, label %13, label %11

11:                                               ; preds = %8
  %12 = load ptr, ptr %3, align 8, !tbaa !11
  store ptr %12, ptr %2, align 8
  br label %16

13:                                               ; preds = %8
  %14 = load ptr, ptr %3, align 8, !tbaa !11
  %15 = call ptr @dcgettext(ptr noundef null, ptr noundef %14, i32 noundef 5) #12
  store ptr %15, ptr %2, align 8
  br label %16

16:                                               ; preds = %13, %11, %7
  %17 = load ptr, ptr %2, align 8
  ret ptr %17
}

; Function Attrs: inlinehint nounwind uwtable
define internal void @git_config(ptr noundef %0, ptr noundef %1) #3 {
  %3 = alloca ptr, align 8
  %4 = alloca ptr, align 8
  store ptr %0, ptr %3, align 8, !tbaa !157
  store ptr %1, ptr %4, align 8, !tbaa !157
  %5 = load ptr, ptr @the_repository, align 8, !tbaa !9
  %6 = load ptr, ptr %3, align 8, !tbaa !157
  %7 = load ptr, ptr %4, align 8, !tbaa !157
  call void @repo_config(ptr noundef %5, ptr noundef %6, ptr noundef %7)
  ret void
}

; Function Attrs: inlinehint nounwind uwtable
define internal i32 @git_config_get_string(ptr noundef %0, ptr noundef %1) #3 {
  %3 = alloca ptr, align 8
  %4 = alloca ptr, align 8
  store ptr %0, ptr %3, align 8, !tbaa !11
  store ptr %1, ptr %4, align 8, !tbaa !119
  %5 = load ptr, ptr @the_repository, align 8, !tbaa !9
  %6 = load ptr, ptr %3, align 8, !tbaa !11
  %7 = load ptr, ptr %4, align 8, !tbaa !119
  %8 = call i32 @repo_config_get_string(ptr noundef %5, ptr noundef %6, ptr noundef %7)
  ret i32 %8
}

; Function Attrs: nounwind uwtable
define internal i32 @parse_ignorewhitespace_option(ptr noundef %0, ptr noundef %1) #0 {
  %3 = alloca i32, align 4
  %4 = alloca ptr, align 8
  %5 = alloca ptr, align 8
  store ptr %0, ptr %4, align 8, !tbaa !4
  store ptr %1, ptr %5, align 8, !tbaa !11
  %6 = load ptr, ptr %5, align 8, !tbaa !11
  %7 = icmp ne ptr %6, null
  br i1 %7, label %8, label %24

8:                                                ; preds = %2
  %9 = load ptr, ptr %5, align 8, !tbaa !11
  %10 = call i32 @strcmp(ptr noundef %9, ptr noundef @.str.118) #11
  %11 = icmp ne i32 %10, 0
  br i1 %11, label %12, label %24

12:                                               ; preds = %8
  %13 = load ptr, ptr %5, align 8, !tbaa !11
  %14 = call i32 @strcmp(ptr noundef %13, ptr noundef @.str.119) #11
  %15 = icmp ne i32 %14, 0
  br i1 %15, label %16, label %24

16:                                               ; preds = %12
  %17 = load ptr, ptr %5, align 8, !tbaa !11
  %18 = call i32 @strcmp(ptr noundef %17, ptr noundef @.str.120) #11
  %19 = icmp ne i32 %18, 0
  br i1 %19, label %20, label %24

20:                                               ; preds = %16
  %21 = load ptr, ptr %5, align 8, !tbaa !11
  %22 = call i32 @strcmp(ptr noundef %21, ptr noundef @.str.121) #11
  %23 = icmp ne i32 %22, 0
  br i1 %23, label %27, label %24

24:                                               ; preds = %20, %16, %12, %8, %2
  %25 = load ptr, ptr %4, align 8, !tbaa !4
  %26 = getelementptr inbounds nuw %struct.apply_state, ptr %25, i32 0, i32 41
  store i32 0, ptr %26, align 4, !tbaa !34
  store i32 0, ptr %3, align 4
  br label %39

27:                                               ; preds = %20
  %28 = load ptr, ptr %5, align 8, !tbaa !11
  %29 = call i32 @strcmp(ptr noundef %28, ptr noundef @.str.122) #11
  %30 = icmp ne i32 %29, 0
  br i1 %30, label %34, label %31

31:                                               ; preds = %27
  %32 = load ptr, ptr %4, align 8, !tbaa !4
  %33 = getelementptr inbounds nuw %struct.apply_state, ptr %32, i32 0, i32 41
  store i32 1, ptr %33, align 4, !tbaa !34
  store i32 0, ptr %3, align 4
  br label %39

34:                                               ; preds = %27
  %35 = call ptr @_(ptr noundef @.str.123)
  %36 = load ptr, ptr %5, align 8, !tbaa !11
  %37 = call i32 (ptr, ...) @error(ptr noundef %35, ptr noundef %36)
  %38 = call i32 @const_error()
  store i32 %38, ptr %3, align 4
  br label %39

39:                                               ; preds = %34, %31, %24
  %40 = load i32, ptr %3, align 4
  ret i32 %40
}

; Function Attrs: nounwind uwtable
define internal void @git_apply_config() #0 {
  %1 = call i32 @git_config_get_string(ptr noundef @.str.109, ptr noundef @apply_default_whitespace)
  %2 = call i32 @git_config_get_string(ptr noundef @.str.110, ptr noundef @apply_default_ignorewhitespace)
  call void @git_config(ptr noundef @git_xmerge_config, ptr noundef null)
  ret void
}

; Function Attrs: inlinehint nounwind uwtable
define internal void @strset_init(ptr noundef %0) #3 {
  %2 = alloca ptr, align 8
  store ptr %0, ptr %2, align 8, !tbaa !36
  %3 = load ptr, ptr %2, align 8, !tbaa !36
  %4 = getelementptr inbounds nuw %struct.strset, ptr %3, i32 0, i32 0
  call void @strmap_init(ptr noundef %4)
  ret void
}

; Function Attrs: nounwind uwtable
define dso_local i32 @init_apply_state(ptr noundef %0, ptr noundef %1, ptr noundef %2) #0 {
  %4 = alloca i32, align 4
  %5 = alloca ptr, align 8
  %6 = alloca ptr, align 8
  %7 = alloca ptr, align 8
  store ptr %0, ptr %5, align 8, !tbaa !4
  store ptr %1, ptr %6, align 8, !tbaa !9
  store ptr %2, ptr %7, align 8, !tbaa !11
  %8 = load ptr, ptr %5, align 8, !tbaa !4
  call void @llvm.memset.p0.i64(ptr align 8 %8, i8 0, i64 448, i1 false)
  %9 = load ptr, ptr %7, align 8, !tbaa !11
  %10 = load ptr, ptr %5, align 8, !tbaa !4
  %11 = getelementptr inbounds nuw %struct.apply_state, ptr %10, i32 0, i32 0
  store ptr %9, ptr %11, align 8, !tbaa !13
  %12 = load ptr, ptr %6, align 8, !tbaa !9
  %13 = load ptr, ptr %5, align 8, !tbaa !4
  %14 = getelementptr inbounds nuw %struct.apply_state, ptr %13, i32 0, i32 19
  store ptr %12, ptr %14, align 8, !tbaa !27
  %15 = load ptr, ptr %5, align 8, !tbaa !4
  %16 = getelementptr inbounds nuw %struct.apply_state, ptr %15, i32 0, i32 2
  store i32 1, ptr %16, align 8, !tbaa !28
  %17 = load ptr, ptr %5, align 8, !tbaa !4
  %18 = getelementptr inbounds nuw %struct.apply_state, ptr %17, i32 0, i32 25
  store i32 10, ptr %18, align 8, !tbaa !29
  %19 = load ptr, ptr %5, align 8, !tbaa !4
  %20 = getelementptr inbounds nuw %struct.apply_state, ptr %19, i32 0, i32 27
  store i32 1, ptr %20, align 8, !tbaa !30
  %21 = load ptr, ptr %5, align 8, !tbaa !4
  %22 = getelementptr inbounds nuw %struct.apply_state, ptr %21, i32 0, i32 29
  store i32 -1, ptr %22, align 8, !tbaa !31
  %23 = load ptr, ptr %5, align 8, !tbaa !4
  %24 = getelementptr inbounds nuw %struct.apply_state, ptr %23, i32 0, i32 44
  store i32 5, ptr %24, align 4, !tbaa !32
  %25 = load ptr, ptr %5, align 8, !tbaa !4
  %26 = getelementptr inbounds nuw %struct.apply_state, ptr %25, i32 0, i32 40
  store i32 1, ptr %26, align 8, !tbaa !33
  %27 = load ptr, ptr %5, align 8, !tbaa !4
  %28 = getelementptr inbounds nuw %struct.apply_state, ptr %27, i32 0, i32 41
  store i32 0, ptr %28, align 4, !tbaa !34
  %29 = load ptr, ptr %5, align 8, !tbaa !4
  %30 = getelementptr inbounds nuw %struct.apply_state, ptr %29, i32 0, i32 32
  store i32 1, ptr %30, align 4, !tbaa !35
  %31 = load ptr, ptr %5, align 8, !tbaa !4
  %32 = getelementptr inbounds nuw %struct.apply_state, ptr %31, i32 0, i32 37
  call void @string_list_init_nodup(ptr noundef %32)
  %33 = load ptr, ptr %5, align 8, !tbaa !4
  %34 = getelementptr inbounds nuw %struct.apply_state, ptr %33, i32 0, i32 30
  call void @string_list_init_nodup(ptr noundef %34)
  %35 = load ptr, ptr %5, align 8, !tbaa !4
  %36 = getelementptr inbounds nuw %struct.apply_state, ptr %35, i32 0, i32 33
  call void @strset_init(ptr noundef %36)
  %37 = load ptr, ptr %5, align 8, !tbaa !4
  %38 = getelementptr inbounds nuw %struct.apply_state, ptr %37, i32 0, i32 34
  call void @strset_init(ptr noundef %38)
  %39 = load ptr, ptr %5, align 8, !tbaa !4
  %40 = getelementptr inbounds nuw %struct.apply_state, ptr %39, i32 0, i32 26
  call void @strbuf_init(ptr noundef %40, i64 noundef 0)
  call void @git_apply_config()
  %41 = load ptr, ptr @apply_default_whitespace, align 8, !tbaa !11
  %42 = icmp ne ptr %41, null
  br i1 %42, label %43, label %49

43:                                               ; preds = %3
  %44 = load ptr, ptr %5, align 8, !tbaa !4
  %45 = load ptr, ptr @apply_default_whitespace, align 8, !tbaa !11
  %46 = call i32 @parse_whitespace_option(ptr noundef %44, ptr noundef %45)
  %47 = icmp ne i32 %46, 0
  br i1 %47, label %48, label %49

48:                                               ; preds = %43
  store i32 -1, ptr %4, align 4
  br label %59

49:                                               ; preds = %43, %3
  %50 = load ptr, ptr @apply_default_ignorewhitespace, align 8, !tbaa !11
  %51 = icmp ne ptr %50, null
  br i1 %51, label %52, label %58

52:                                               ; preds = %49
  %53 = load ptr, ptr %5, align 8, !tbaa !4
  %54 = load ptr, ptr @apply_default_ignorewhitespace, align 8, !tbaa !11
  %55 = call i32 @parse_ignorewhitespace_option(ptr noundef %53, ptr noundef %54)
  %56 = icmp ne i32 %55, 0
  br i1 %56, label %57, label %58

57:                                               ; preds = %52
  store i32 -1, ptr %4, align 4
  br label %59

58:                                               ; preds = %52, %49
  store i32 0, ptr %4, align 4
  br label %59

59:                                               ; preds = %58, %57, %48
  %60 = load i32, ptr %4, align 4
  ret i32 %60
}