; Function Attrs: nounwind uwtable
define dso_local range(i32 -1, 1) i32 @init_apply_state(ptr noundef initializes((0, 448)) %0, ptr noundef %1, ptr noundef %2) local_unnamed_addr #0 {
  %4 = getelementptr inbounds nuw i8, ptr %0, i64 8
  tail call void @llvm.memset.p0.i64(ptr noundef nonnull align 8 dereferenceable(448) %4, i8 0, i64 440, i1 false)
  store ptr %2, ptr %0, align 8, !tbaa !4
  %5 = getelementptr inbounds nuw i8, ptr %0, i64 88
  store ptr %1, ptr %5, align 8, !tbaa !23
  %6 = getelementptr inbounds nuw i8, ptr %0, i64 16
  store i32 1, ptr %6, align 8, !tbaa !24
  %7 = getelementptr inbounds nuw i8, ptr %0, i64 128
  store i32 10, ptr %7, align 8, !tbaa !25
  %8 = getelementptr inbounds nuw i8, ptr %0, i64 160
  store i32 1, ptr %8, align 8, !tbaa !26
  %9 = getelementptr inbounds nuw i8, ptr %0, i64 168
  store i32 -1, ptr %9, align 8, !tbaa !27
  %10 = getelementptr inbounds nuw i8, ptr %0, i64 436
  store i32 5, ptr %10, align 4, !tbaa !28
  %11 = getelementptr inbounds nuw i8, ptr %0, i64 416
  store i32 1, ptr %11, align 8, !tbaa !29
  %12 = getelementptr inbounds nuw i8, ptr %0, i64 420
  %13 = getelementptr inbounds nuw i8, ptr %0, i64 220
  store i32 1, ptr %13, align 4, !tbaa !30
  %14 = getelementptr inbounds nuw i8, ptr %0, i64 360
  tail call void @string_list_init_nodup(ptr noundef nonnull %14) #21
  %15 = getelementptr inbounds nuw i8, ptr %0, i64 176
  tail call void @string_list_init_nodup(ptr noundef nonnull %15) #21
  %16 = getelementptr inbounds nuw i8, ptr %0, i64 224
  tail call void @strmap_init(ptr noundef nonnull %16) #21
  %17 = getelementptr inbounds nuw i8, ptr %0, i64 288
  tail call void @strmap_init(ptr noundef nonnull %17) #21
  %18 = getelementptr inbounds nuw i8, ptr %0, i64 136
  tail call void @strbuf_init(ptr noundef nonnull %18, i64 noundef 0) #21
  %19 = load ptr, ptr @the_repository, align 8, !tbaa !31
  %20 = tail call i32 @repo_config_get_string(ptr noundef %19, ptr noundef nonnull @.str.109, ptr noundef nonnull @apply_default_whitespace) #21
  %21 = load ptr, ptr @the_repository, align 8, !tbaa !31
  %22 = tail call i32 @repo_config_get_string(ptr noundef %21, ptr noundef nonnull @.str.110, ptr noundef nonnull @apply_default_ignorewhitespace) #21
  %23 = load ptr, ptr @the_repository, align 8, !tbaa !31
  tail call void @repo_config(ptr noundef %23, ptr noundef nonnull @git_xmerge_config, ptr noundef null) #21
  %24 = load ptr, ptr @apply_default_whitespace, align 8, !tbaa !32
  %.not = icmp eq ptr %24, null
  br i1 %.not, label %27, label %25

25:                                               ; preds = %3
  %26 = tail call fastcc i32 @parse_whitespace_option(ptr noundef nonnull %0, ptr noundef nonnull %24)
  %.not22 = icmp eq i32 %26, 0
  br i1 %.not22, label %27, label %parse_ignorewhitespace_option.exit.thread

27:                                               ; preds = %25, %3
  %28 = load ptr, ptr @apply_default_ignorewhitespace, align 8, !tbaa !32
  %.not23 = icmp eq ptr %28, null
  br i1 %.not23, label %parse_ignorewhitespace_option.exit.thread, label %29

29:                                               ; preds = %27
  %30 = load i8, ptr %28, align 1
  %.not14.i = icmp eq i8 %30, 110
  br i1 %.not14.i, label %sub_1.i, label %.tail.thread.i

sub_1.i:                                          ; preds = %29
  %31 = getelementptr inbounds nuw i8, ptr %28, i64 1
  %32 = load i8, ptr %31, align 1
  %.not15.i = icmp eq i8 %32, 111
  br i1 %.not15.i, label %.tail.i, label %.tail.thread.i

.tail.i:                                          ; preds = %sub_1.i
  %33 = getelementptr inbounds nuw i8, ptr %28, i64 2
  %34 = load i8, ptr %33, align 1
  %35 = icmp eq i8 %34, 0
  br i1 %35, label %41, label %.tail.thread.i

.tail.thread.i:                                   ; preds = %.tail.i, %sub_1.i, %29
  %36 = tail call i32 @strcmp(ptr noundef nonnull dereferenceable(1) %28, ptr noundef nonnull dereferenceable(6) @.str.119) #22
  %.not10.i = icmp eq i32 %36, 0
  br i1 %.not10.i, label %41, label %37

37:                                               ; preds = %.tail.thread.i
  %38 = tail call i32 @strcmp(ptr noundef nonnull dereferenceable(1) %28, ptr noundef nonnull dereferenceable(6) @.str.120) #22
  %.not11.i = icmp eq i32 %38, 0
  br i1 %.not11.i, label %41, label %39

39:                                               ; preds = %37
  %40 = tail call i32 @strcmp(ptr noundef nonnull dereferenceable(1) %28, ptr noundef nonnull dereferenceable(5) @.str.121) #22
  %.not12.i = icmp eq i32 %40, 0
  br i1 %.not12.i, label %41, label %42

41:                                               ; preds = %39, %37, %.tail.thread.i, %.tail.i
  store i32 0, ptr %12, align 4, !tbaa !33
  br label %parse_ignorewhitespace_option.exit.thread

42:                                               ; preds = %39
  %43 = tail call i32 @strcmp(ptr noundef nonnull dereferenceable(1) %28, ptr noundef nonnull dereferenceable(7) @.str.122) #22
  %.not13.i = icmp eq i32 %43, 0
  br i1 %.not13.i, label %44, label %45

44:                                               ; preds = %42
  store i32 1, ptr %12, align 4, !tbaa !33
  br label %parse_ignorewhitespace_option.exit.thread

45:                                               ; preds = %42
  %46 = load i32, ptr @git_gettext_enabled, align 4, !tbaa !34
  %.not4.i.i = icmp eq i32 %46, 0
  br i1 %.not4.i.i, label %parse_ignorewhitespace_option.exit, label %47

47:                                               ; preds = %45
  %48 = tail call ptr @dcgettext(ptr noundef null, ptr noundef nonnull @.str.123, i32 noundef 5) #21
  br label %parse_ignorewhitespace_option.exit

parse_ignorewhitespace_option.exit:               ; preds = %45, %47
  %.0.i.i = phi ptr [ %48, %47 ], [ @.str.123, %45 ]
  %49 = tail call i32 (ptr, ...) @error(ptr noundef %.0.i.i, ptr noundef nonnull %28) #21
  br label %parse_ignorewhitespace_option.exit.thread

parse_ignorewhitespace_option.exit.thread:        ; preds = %41, %44, %27, %parse_ignorewhitespace_option.exit, %25
  %.0 = phi i32 [ -1, %25 ], [ -1, %parse_ignorewhitespace_option.exit ], [ 0, %27 ], [ 0, %44 ], [ 0, %41 ]
  ret i32 %.0
}